Certificate:
    Data:
        Version: 3 (0x2)
        Serial Number: 1 (0x1)
        Signature Algorithm: md5WithRSAEncryption
        Issuer: C=FR, ST=Radius, L=Somewhere, O=Example Inc./emailAddress=admin@example.com, CN=Example Certificate Authority
        Validity
            Not Before: Jul 10 12:45:16 2009 GMT
            Not After : Jul 10 12:45:16 2010 GMT
        Subject: C=FR, ST=Radius, O=Example Inc., CN=Example Server Certificate/emailAddress=admin@example.com
        Subject Public Key Info:
            Public Key Algorithm: rsaEncryption
            RSA Public Key: (2048 bit)
                Modulus (2048 bit):
                    00:bd:80:b1:6c:58:d7:1b:2a:48:20:76:21:1d:2d:
                    e3:7c:62:8a:cb:4c:62:34:5c:7c:6c:27:df:c8:07:
                    c3:4b:51:7e:9e:d1:d9:00:c1:a8:95:2e:d6:0f:c4:
                    6f:8b:1c:05:3e:54:7e:3e:04:ad:9d:b5:8d:01:c1:
                    32:eb:5e:f2:cd:c2:2e:1d:7f:21:ce:c9:a2:16:09:
                    33:24:9e:a2:c7:41:12:1b:b1:e5:3f:9f:bc:e1:98:
                    17:13:54:b0:71:64:57:a8:6d:6e:08:39:e5:a6:f7:
                    a3:5c:82:65:66:ad:6c:51:5e:1c:cb:e4:58:bc:09:
                    0e:82:cd:19:63:6a:c3:ef:71:18:01:0e:3c:63:38:
                    3a:2b:d4:1b:4e:43:95:b7:b2:93:ca:04:4c:24:92:
                    16:f0:92:5e:30:61:a2:d6:9a:f9:2b:5f:34:5f:e5:
                    5d:a2:7c:e4:cb:ef:1e:53:eb:6b:67:00:ee:3e:12:
                    db:2c:2b:ad:ff:46:b8:6d:9f:c1:c0:87:82:b7:29:
                    21:90:ea:40:0f:97:9a:f0:b7:b4:44:39:84:22:de:
                    c6:7a:16:6a:21:64:8e:45:3c:2e:08:f5:a5:47:11:
                    ab:e9:54:1a:60:cb:f3:01:d4:6c:35:22:0e:57:b4:
                    bc:59:bb:be:c6:c2:bf:a6:92:5b:77:76:f0:95:81:
                    c9:47
                Exponent: 65537 (0x10001)
        X509v3 extensions:
            X509v3 Extended Key Usage: 
                TLS Web Server Authentication
    Signature Algorithm: md5WithRSAEncryption
        bc:97:53:f1:f5:6b:7a:4e:ab:f5:00:fd:98:49:f7:bc:17:2a:
        4d:52:a0:c0:b3:eb:d4:f1:7c:f8:4d:dc:19:43:fe:41:53:da:
        70:18:75:b3:25:75:45:1f:9d:d3:2c:c1:44:2b:a9:6a:02:be:
        b8:0b:6f:d2:01:54:db:8d:62:67:39:e9:e7:67:0a:61:a2:1d:
        3d:ac:b3:15:91:8e:4c:f7:16:43:81:d4:87:5c:5d:24:dd:a8:
        e9:64:97:eb:07:88:e1:79:81:b4:f2:83:d0:64:61:c1:4e:47:
        50:72:3c:1a:ac:7c:6c:ef:bf:de:f3:c0:64:c3:4a:14:b8:95:
        f0:72:5a:a6:f7:ee:e4:e6:e1:7a:bb:f2:2f:fd:80:7d:fb:a9:
        17:93:85:f5:77:c0:0e:85:20:16:f8:7c:6f:3c:58:bb:21:e3:
        9c:ca:1d:f6:6c:fc:a5:9a:1b:45:95:b7:6f:9b:ca:a8:09:4f:
        6c:af:d1:de:38:35:b0:a6:29:e7:48:a4:f8:84:ed:86:17:3c:
        99:c6:f2:ba:2a:96:75:94:f4:c1:5e:09:b0:48:1f:a9:b1:5b:
        3d:16:3e:c3:98:13:87:af:b1:64:ae:a9:f3:95:ce:7c:e8:02:
        17:2c:eb:4c:e4:04:78:13:bb:7d:21:82:b2:28:4f:e4:e5:d9:
        3e:86:2d:15
-----BEGIN CERTIFICATE-----
MIIDojCCAoqgAwIBAgIBATANBgkqhkiG9w0BAQQFADCBkzELMAkGA1UEBhMCRlIx
DzANBgNVBAgTBlJhZGl1czESMBAGA1UEBxMJU29tZXdoZXJlMRUwEwYDVQQKEwxF
eGFtcGxlIEluYy4xIDAeBgkqhkiG9w0BCQEWEWFkbWluQGV4YW1wbGUuY29tMSYw
JAYDVQQDEx1FeGFtcGxlIENlcnRpZmljYXRlIEF1dGhvcml0eTAeFw0wOTA3MTAx
MjQ1MTZaFw0xMDA3MTAxMjQ1MTZaMHwxCzAJBgNVBAYTAkZSMQ8wDQYDVQQIEwZS
YWRpdXMxFTATBgNVBAoTDEV4YW1wbGUgSW5jLjEjMCEGA1UEAxMaRXhhbXBsZSBT
ZXJ2ZXIgQ2VydGlmaWNhdGUxIDAeBgkqhkiG9w0BCQEWEWFkbWluQGV4YW1wbGUu
Y29tMIIBIjANBgkqhkiG9w0BAQEFAAOCAQ8AMIIBCgKCAQEAvYCxbFjXGypIIHYh
HS3jfGKKy0xiNFx8bCffyAfDS1F+ntHZAMGolS7WD8RvixwFPlR+PgStnbWNAcEy
617yzcIuHX8hzsmiFgkzJJ6ix0ESG7HlP5+84ZgXE1SwcWRXqG1uCDnlpvejXIJl
Zq1sUV4cy+RYvAkOgs0ZY2rD73EYAQ48Yzg6K9QbTkOVt7KTygRMJJIW8JJeMGGi
1pr5K180X+Vdonzky+8eU+trZwDuPhLbLCut/0a4bZ/BwIeCtykhkOpAD5ea8Le0
RDmEIt7GehZqIWSORTwuCPWlRxGr6VQaYMvzAdRsNSIOV7S8Wbu+xsK/ppJbd3bw
lYHJRwIDAQABoxcwFTATBgNVHSUEDDAKBggrBgEFBQcDATANBgkqhkiG9w0BAQQF
AAOCAQEAvJdT8fVrek6r9QD9mEn3vBcqTVKgwLPr1PF8+E3cGUP+QVPacBh1syV1
RR+d0yzBRCupagK+uAtv0gFU241iZznp52cKYaIdPayzFZGOTPcWQ4HUh1xdJN2o
6WSX6weI4XmBtPKD0GRhwU5HUHI8Gqx8bO+/3vPAZMNKFLiV8HJapvfu5Obhervy
L/2AffupF5OF9XfADoUgFvh8bzxYuyHjnMod9mz8pZobRZW3b5vKqAlPbK/R3jg1
sKYp50ik+ITthhc8mcbyuiqWdZT0wV4JsEgfqbFbPRY+w5gTh6+xZK6p85XOfOgC
FyzrTOQEeBO7fSGCsihP5OXZPoYtFQ==
-----END CERTIFICATE-----
